; Function Attrs: mustprogress nofree norecurse nosync nounwind willreturn memory(read, inaccessiblemem: none) uwtable
define hidden ptr @b2GetBodySim(ptr noundef readonly captures(none) %0, ptr noundef readonly captures(none) %1) local_unnamed_addr #4 {
  %3 = getelementptr inbounds nuw i8, ptr %0, i64 1072
  %4 = getelementptr inbounds nuw i8, ptr %1, i64 40
  %5 = load i32, ptr %4, align 8, !tbaa !19
  %.val = load ptr, ptr %3, align 8, !tbaa !24
  %6 = sext i32 %5 to i64
  %7 = getelementptr inbounds %struct.b2SolverSet, ptr %.val, i64 %6
  %8 = getelementptr inbounds nuw i8, ptr %1, i64 44
  %9 = load i32, ptr %8, align 4, !tbaa !27
  %.val5 = load ptr, ptr %7, align 8, !tbaa !14
  %10 = sext i32 %9 to i64
  %11 = getelementptr inbounds %struct.b2BodySim, ptr %.val5, i64 %10
  ret ptr %11
}